Certificate:
    Data:
        Version: 3 (0x2)
        Serial Number: 1 (0x1)
    Signature Algorithm: sha1WithRSAEncryption
        Issuer: C=CN, ST=Beijing, L=Beijing, O=China Telecom System Integration Co., Ltd., OU=Development Dept., CN=sufor.cc/emailAddress=cuiwei1@ctsi.com.cn
        Validity
            Not Before: Jun 18 05:49:52 2014 GMT
            Not After : Aug  9 05:49:52 2214 GMT
        Subject: C=CN, ST=Beijing, L=Beijing, O=China Telecom System Integration Co., Ltd., OU=Development Dept., CN=*.sufor.cc/emailAddress=cuiwei1@ctsi.com.cn
        Subject Public Key Info:
            Public Key Algorithm: rsaEncryption
                Public-Key: (2048 bit)
                Modulus:
                    00:ea:65:a6:8c:8f:35:fe:aa:5c:07:57:bf:63:ba:
                    c0:d4:84:21:fa:40:fe:7d:e0:e9:43:76:ec:fb:1b:
                    97:6d:4c:5a:8a:f4:07:54:13:75:cd:13:0e:90:03:
                    27:02:2b:43:36:e9:f9:d1:86:c1:85:f0:d5:54:21:
                    33:25:dd:36:a6:15:65:83:41:0a:58:aa:cb:ae:cd:
                    9e:65:e5:2c:ad:49:09:2f:b6:45:e6:2c:e6:df:c0:
                    a0:76:a1:d6:b5:c0:3e:28:d0:4c:72:2c:b2:c5:a4:
                    16:25:cc:f1:52:5a:a3:48:6f:14:f2:be:c8:36:e1:
                    34:3f:36:0e:52:6a:8b:e2:4b:8f:15:05:8e:4e:d0:
                    60:21:f8:6c:9f:31:81:bc:b4:44:4c:2b:75:25:2e:
                    7d:11:ee:00:5e:b7:0d:2b:b1:c4:b7:ef:0f:42:44:
                    f6:ca:6f:a3:4f:d1:2d:52:22:75:a0:11:f0:21:73:
                    d4:87:b0:e6:d1:a9:2f:d0:7b:5a:33:0a:92:12:b1:
                    bf:c8:f5:02:b4:de:03:c7:35:c7:92:d1:f9:37:ad:
                    81:56:1b:37:76:be:5d:c0:ed:f2:a3:8e:dd:25:10:
                    e4:d3:5a:39:21:67:55:4e:75:18:07:55:24:2f:b7:
                    7e:c2:f7:71:52:a0:e6:6e:f3:d6:c7:3c:09:2e:55:
                    8a:9d
                Exponent: 65537 (0x10001)
        X509v3 extensions:
            X509v3 Basic Constraints: 
                CA:FALSE
            Netscape Comment: 
                OpenSSL Generated Certificate
            X509v3 Subject Key Identifier: 
                D5:48:04:BA:A3:0A:47:6A:3A:3C:58:F5:5B:22:4E:BF:A3:6D:E9:9A
            X509v3 Authority Key Identifier: 
                keyid:F7:A8:A5:98:48:B7:1D:82:C6:30:32:E9:37:62:65:D8:30:85:1D:B1

    Signature Algorithm: sha1WithRSAEncryption
         07:1b:37:b8:02:ca:5d:e0:02:68:b2:f2:f5:a6:14:c3:7a:80:
         8e:22:53:28:40:38:0c:c9:a2:80:c0:16:a5:cf:e6:0f:e7:b8:
         0f:79:a6:df:bf:fc:c5:93:2d:3b:a6:ed:95:39:cf:c0:1e:6e:
         a3:6d:5e:2d:51:a2:d4:e2:bf:63:86:c6:37:f6:f8:f2:13:fd:
         23:62:c3:69:ce:17:c0:39:e2:ea:01:9c:c0:ae:c5:27:ff:0c:
         f4:40:b8:f0:a3:39:18:22:cc:4b:fe:76:62:da:6f:ef:cb:95:
         3c:24:79:77:29:5a:16:a3:5d:c2:51:b5:f1:8a:fb:f1:d5:aa:
         8a:ba:15:60:73:59:d1:c9:dd:6e:8b:45:13:fd:8b:bd:8f:17:
         1d:9b:12:85:36:be:19:f5:39:7e:26:c1:cc:6e:a0:78:de:82:
         a5:f0:7c:a0:b7:e0:6b:fd:a8:f2:cf:f5:46:4b:18:c0:80:09:
         89:d5:fb:75:f4:f0:c3:4d:ec:16:05:22:35:48:16:6c:84:1d:
         fd:31:1a:94:6c:47:b1:41:dd:f5:b3:be:74:bd:f1:a4:16:a0:
         28:56:43:b4:47:8b:69:37:23:54:35:3c:17:c6:53:58:15:aa:
         7a:21:c1:c0:ca:46:17:58:2f:e3:33:b4:46:1a:17:73:55:1c:
         ea:9a:00:c9
-----BEGIN CERTIFICATE-----
MIIEbjCCA1agAwIBAgIBATANBgkqhkiG9w0BAQUFADCBuTELMAkGA1UEBhMCQ04x
EDAOBgNVBAgMB0JlaWppbmcxEDAOBgNVBAcMB0JlaWppbmcxMzAxBgNVBAoMKkNo
aW5hIFRlbGVjb20gU3lzdGVtIEludGVncmF0aW9uIENvLiwgTHRkLjEaMBgGA1UE
CwwRRGV2ZWxvcG1lbnQgRGVwdC4xETAPBgNVBAMMCHN1Zm9yLmNjMSIwIAYJKoZI
hvcNAQkBFhNjdWl3ZWkxQGN0c2kuY29tLmNuMCAXDTE0MDYxODA1NDk1MloYDzIy
MTQwODA5MDU0OTUyWjCBuzELMAkGA1UEBhMCQ04xEDAOBgNVBAgMB0JlaWppbmcx
EDAOBgNVBAcMB0JlaWppbmcxMzAxBgNVBAoMKkNoaW5hIFRlbGVjb20gU3lzdGVt
IEludGVncmF0aW9uIENvLiwgTHRkLjEaMBgGA1UECwwRRGV2ZWxvcG1lbnQgRGVw
dC4xEzARBgNVBAMMCiouc3Vmb3IuY2MxIjAgBgkqhkiG9w0BCQEWE2N1aXdlaTFA
Y3RzaS5jb20uY24wggEiMA0GCSqGSIb3DQEBAQUAA4IBDwAwggEKAoIBAQDqZaaM
jzX+qlwHV79jusDUhCH6QP594OlDduz7G5dtTFqK9AdUE3XNEw6QAycCK0M26fnR
hsGF8NVUITMl3TamFWWDQQpYqsuuzZ5l5SytSQkvtkXmLObfwKB2oda1wD4o0Exy
LLLFpBYlzPFSWqNIbxTyvsg24TQ/Ng5SaoviS48VBY5O0GAh+GyfMYG8tERMK3Ul
Ln0R7gBetw0rscS37w9CRPbKb6NP0S1SInWgEfAhc9SHsObRqS/Qe1ozCpISsb/I
9QK03gPHNceS0fk3rYFWGzd2vl3A7fKjjt0lEOTTWjkhZ1VOdRgHVSQvt37C93FS
oOZu89bHPAkuVYqdAgMBAAGjezB5MAkGA1UdEwQCMAAwLAYJYIZIAYb4QgENBB8W
HU9wZW5TU0wgR2VuZXJhdGVkIENlcnRpZmljYXRlMB0GA1UdDgQWBBTVSAS6owpH
ajo8WPVbIk6/o23pmjAfBgNVHSMEGDAWgBT3qKWYSLcdgsYwMuk3YmXYMIUdsTAN
BgkqhkiG9w0BAQUFAAOCAQEABxs3uALKXeACaLLy9aYUw3qAjiJTKEA4DMmigMAW
pc/mD+e4D3mm37/8xZMtO6btlTnPwB5uo21eLVGi1OK/Y4bGN/b48hP9I2LDac4X
wDni6gGcwK7FJ/8M9EC48KM5GCLMS/52Ytpv78uVPCR5dylaFqNdwlG18Yr78dWq
iroVYHNZ0cndbotFE/2LvY8XHZsShTa+GfU5fibBzG6geN6CpfB8oLfga/2o8s/1
RksYwIAJidX7dfTww03sFgUiNUgWbIQd/TEalGxHsUHd9bO+dL3xpBagKFZDtEeL
aTcjVDU8F8ZTWBWqeiHBwMpGF1gv4zO0RhoXc1Uc6poAyQ==
-----END CERTIFICATE-----
-----BEGIN CERTIFICATE-----
MIIESTCCAzGgAwIBAgIJALC5TgKAAdckMA0GCSqGSIb3DQEBBQUAMIG5MQswCQYD
VQQGEwJDTjEQMA4GA1UECAwHQmVpamluZzEQMA4GA1UEBwwHQmVpamluZzEzMDEG
A1UECgwqQ2hpbmEgVGVsZWNvbSBTeXN0ZW0gSW50ZWdyYXRpb24gQ28uLCBMdGQu
MRowGAYDVQQLDBFEZXZlbG9wbWVudCBEZXB0LjERMA8GA1UEAwwIc3Vmb3IuY2Mx
IjAgBgkqhkiG9w0BCQEWE2N1aXdlaTFAY3RzaS5jb20uY24wIBcNMTQwNjE4MDU0
MjQzWhgPMjIxNDA4MDkwNTQyNDNaMIG5MQswCQYDVQQGEwJDTjEQMA4GA1UECAwH
QmVpamluZzEQMA4GA1UEBwwHQmVpamluZzEzMDEGA1UECgwqQ2hpbmEgVGVsZWNv
bSBTeXN0ZW0gSW50ZWdyYXRpb24gQ28uLCBMdGQuMRowGAYDVQQLDBFEZXZlbG9w
bWVudCBEZXB0LjERMA8GA1UEAwwIc3Vmb3IuY2MxIjAgBgkqhkiG9w0BCQEWE2N1
aXdlaTFAY3RzaS5jb20uY24wggEiMA0GCSqGSIb3DQEBAQUAA4IBDwAwggEKAoIB
AQC6tLUdhbh2U4/MjDl7d1x3BDkQiNYo97dImqZCzcs4rQP8VikpMQK1fX0zrGYw
zP6IIKVlhFSCD4K4rjcDdady+Ws+ETHsFCdXt6ed3miuFsEpcrgiaC5DLR4p9Fg6
8LbYJs0Jy6MK/TTyedXIl60AmzN8I2QTAtoVMEuEAKb3uxjuNA7koxWnHma9Kqr/
WMeqqn4HIEYQkpFpdI0HrVZ/DaxZbl9H4T1Hdh/idB8OfIz6AZbODwlpZz+NSSe5
MCyAZ9sfUrr5JEwzv6oP/QQeI8sDKcPTpEB7/89iL7P9lvFUTdubBS4zqVi8AZ+S
5x4H+Lh7kbVLAba5oCFjlPp9AgMBAAGjUDBOMB0GA1UdDgQWBBT3qKWYSLcdgsYw
Muk3YmXYMIUdsTAfBgNVHSMEGDAWgBT3qKWYSLcdgsYwMuk3YmXYMIUdsTAMBgNV
HRMEBTADAQH/MA0GCSqGSIb3DQEBBQUAA4IBAQBx4hB6CMIdjjG/MQGa1kMPJGu9
eXl0chvPQBgIP+vcyg1/GJG0JpNRET/6rq3+8LHCWfkK/AKUZIkCZZt1aeGgiSy9
zO9V0jgLizzYAugrrtfkwjylNO9UnsTl1M1lTamTiD9jNiQRl64YROKRw0qr/YUI
zh+AmtA0eWpGYJ3Ew31EBbvQEhTDioTHfEBM73i1vA0vIQN43MmNUgNPOXM+o13j
GvzN6Wyo65TvvlNxwUBZq+OeF6dZVAvoTWMfoZZQIp9Syn0BmsT9ousAlVpIsdpf
5nRl30Oqs3HUnheVSEJTTtNtv6NDdeRaAoXzx9QHmg5HbWdgcOQqRwcAb5Y+
-----END CERTIFICATE-----
